target datalayout = "e-m:e-p270:32:32-p271:32:32-p272:64:64-i64:64-i128:128-f80:128-n8:16:32:64-S128"
target triple = "x86_64-pc-linux-gnu"

%struct.RelMapFile = type { i32, i32, [64 x %struct.RelMapping], i32 }
%struct.RelMapping = type { i32, i32 }
%union.LWLockPadded = type { %struct.LWLock, [112 x i8] }
%struct.LWLock = type { i16, %struct.pg_atomic_uint32, %struct.proclist_head }
%struct.pg_atomic_uint32 = type { i32 }
%struct.proclist_head = type { i32, i32 }

@shared_map = internal global %struct.RelMapFile zeroinitializer, align 4
@local_map = internal global %struct.RelMapFile zeroinitializer, align 4
@MainLWLockArray = external global ptr, align 8
@.str.1 = private unnamed_addr constant [12 x i8] c"relmapper.c\00", align 1
@.str.5 = private unnamed_addr constant [7 x i8] c"global\00", align 1
@MyDatabaseId = external global i32, align 4
@MyDatabaseTableSpace = external global i32, align 4
@DatabasePath = external global ptr, align 8
@.str.9 = private unnamed_addr constant [51 x i8] c"attempt to apply a mapping to unmapped relation %u\00", align 1
@__func__.apply_map_update = private unnamed_addr constant [17 x i8] c"apply_map_update\00", align 1
@.str.10 = private unnamed_addr constant [33 x i8] c"ran out of space in relation map\00", align 1
@allowSystemTableMods = external global i8, align 1

; Function Attrs: nounwind uwtable
define internal void @apply_map_update(ptr noundef %0, i32 noundef %1, i32 noundef %2, i1 noundef zeroext %3) #0 {
  %5 = alloca ptr, align 8
  %6 = alloca i32, align 4
  %7 = alloca i32, align 4
  %8 = alloca i8, align 1
  %9 = alloca i32, align 4
  %10 = alloca i32, align 4
  store ptr %0, ptr %5, align 8
  store i32 %1, ptr %6, align 4
  store i32 %2, ptr %7, align 4
  %11 = zext i1 %3 to i8
  store i8 %11, ptr %8, align 1
  call void @llvm.lifetime.start.p0(i64 4, ptr %9) #8
  store i32 0, ptr %9, align 4
  br label %12

12:                                               ; preds = %37, %4
  %13 = load i32, ptr %9, align 4
  %14 = load ptr, ptr %5, align 8
  %15 = getelementptr inbounds nuw %struct.RelMapFile, ptr %14, i32 0, i32 1
  %16 = load i32, ptr %15, align 4
  %17 = icmp slt i32 %13, %16
  br i1 %17, label %18, label %40

18:                                               ; preds = %12
  %19 = load i32, ptr %6, align 4
  %20 = load ptr, ptr %5, align 8
  %21 = getelementptr inbounds nuw %struct.RelMapFile, ptr %20, i32 0, i32 2
  %22 = load i32, ptr %9, align 4
  %23 = sext i32 %22 to i64
  %24 = getelementptr inbounds [64 x %struct.RelMapping], ptr %21, i64 0, i64 %23
  %25 = getelementptr inbounds nuw %struct.RelMapping, ptr %24, i32 0, i32 0
  %26 = load i32, ptr %25, align 4
  %27 = icmp eq i32 %19, %26
  br i1 %27, label %28, label %36

28:                                               ; preds = %18
  %29 = load i32, ptr %7, align 4
  %30 = load ptr, ptr %5, align 8
  %31 = getelementptr inbounds nuw %struct.RelMapFile, ptr %30, i32 0, i32 2
  %32 = load i32, ptr %9, align 4
  %33 = sext i32 %32 to i64
  %34 = getelementptr inbounds [64 x %struct.RelMapping], ptr %31, i64 0, i64 %33
  %35 = getelementptr inbounds nuw %struct.RelMapping, ptr %34, i32 0, i32 1
  store i32 %29, ptr %35, align 4
  store i32 1, ptr %10, align 4
  br label %94

36:                                               ; preds = %18
  br label %37

37:                                               ; preds = %36
  %38 = load i32, ptr %9, align 4
  %39 = add i32 %38, 1
  store i32 %39, ptr %9, align 4
  br label %12, !llvm.loop !17

40:                                               ; preds = %12
  %41 = load i8, ptr %8, align 1, !range !4, !noundef !5
  %42 = trunc i8 %41 to i1
  br i1 %42, label %55, label %43

43:                                               ; preds = %40
  br label %44

44:                                               ; preds = %43
  br i1 true, label %45, label %47

45:                                               ; preds = %44
  %46 = call zeroext i1 @errstart_cold(i32 noundef 21, ptr noundef null) #9
  br i1 %46, label %49, label %52

47:                                               ; preds = %44
  %48 = call zeroext i1 @errstart(i32 noundef 21, ptr noundef null)
  br i1 %48, label %49, label %52

49:                                               ; preds = %47, %45
  %50 = load i32, ptr %6, align 4
  %51 = call i32 (ptr, ...) @errmsg_internal(ptr noundef @.str.9, i32 noundef %50)
  call void @errfinish(ptr noundef @.str.1, i32 noundef 401, ptr noundef @__func__.apply_map_update)
  br label %52

52:                                               ; preds = %49, %47, %45
  unreachable

53:                                               ; No predecessors!
  br label %54

54:                                               ; preds = %53
  br label %55

55:                                               ; preds = %54, %40
  %56 = load ptr, ptr %5, align 8
  %57 = getelementptr inbounds nuw %struct.RelMapFile, ptr %56, i32 0, i32 1
  %58 = load i32, ptr %57, align 4
  %59 = icmp sge i32 %58, 64
  br i1 %59, label %60, label %71

60:                                               ; preds = %55
  br label %61

61:                                               ; preds = %60
  br i1 true, label %62, label %64

62:                                               ; preds = %61
  %63 = call zeroext i1 @errstart_cold(i32 noundef 21, ptr noundef null) #9
  br i1 %63, label %66, label %68

64:                                               ; preds = %61
  %65 = call zeroext i1 @errstart(i32 noundef 21, ptr noundef null)
  br i1 %65, label %66, label %68

66:                                               ; preds = %64, %62
  %67 = call i32 (ptr, ...) @errmsg_internal(ptr noundef @.str.10)
  call void @errfinish(ptr noundef @.str.1, i32 noundef 403, ptr noundef @__func__.apply_map_update)
  br label %68

68:                                               ; preds = %66, %64, %62
  unreachable

69:                                               ; No predecessors!
  br label %70

70:                                               ; preds = %69
  br label %71

71:                                               ; preds = %70, %55
  %72 = load i32, ptr %6, align 4
  %73 = load ptr, ptr %5, align 8
  %74 = getelementptr inbounds nuw %struct.RelMapFile, ptr %73, i32 0, i32 2
  %75 = load ptr, ptr %5, align 8
  %76 = getelementptr inbounds nuw %struct.RelMapFile, ptr %75, i32 0, i32 1
  %77 = load i32, ptr %76, align 4
  %78 = sext i32 %77 to i64
  %79 = getelementptr inbounds [64 x %struct.RelMapping], ptr %74, i64 0, i64 %78
  %80 = getelementptr inbounds nuw %struct.RelMapping, ptr %79, i32 0, i32 0
  store i32 %72, ptr %80, align 4
  %81 = load i32, ptr %7, align 4
  %82 = load ptr, ptr %5, align 8
  %83 = getelementptr inbounds nuw %struct.RelMapFile, ptr %82, i32 0, i32 2
  %84 = load ptr, ptr %5, align 8
  %85 = getelementptr inbounds nuw %struct.RelMapFile, ptr %84, i32 0, i32 1
  %86 = load i32, ptr %85, align 4
  %87 = sext i32 %86 to i64
  %88 = getelementptr inbounds [64 x %struct.RelMapping], ptr %83, i64 0, i64 %87
  %89 = getelementptr inbounds nuw %struct.RelMapping, ptr %88, i32 0, i32 1
  store i32 %81, ptr %89, align 4
  %90 = load ptr, ptr %5, align 8
  %91 = getelementptr inbounds nuw %struct.RelMapFile, ptr %90, i32 0, i32 1
  %92 = load i32, ptr %91, align 4
  %93 = add i32 %92, 1
  store i32 %93, ptr %91, align 4
  store i32 0, ptr %10, align 4
  br label %94

94:                                               ; preds = %71, %28
  call void @llvm.lifetime.end.p0(i64 4, ptr %9) #8
  %95 = load i32, ptr %10, align 4
  switch i32 %95, label %97 [
    i32 0, label %96
    i32 1, label %96
  ]

96:                                               ; preds = %94, %94
  ret void

97:                                               ; preds = %94
  unreachable
}

; Function Attrs: nounwind uwtable
define internal void @merge_map_updates(ptr noundef %0, ptr noundef %1, i1 noundef zeroext %2) #0 {
  %4 = alloca ptr, align 8
  %5 = alloca ptr, align 8
  %6 = alloca i8, align 1
  %7 = alloca i32, align 4
  store ptr %0, ptr %4, align 8
  store ptr %1, ptr %5, align 8
  %8 = zext i1 %2 to i8
  store i8 %8, ptr %6, align 1
  call void @llvm.lifetime.start.p0(i64 4, ptr %7) #8
  store i32 0, ptr %7, align 4
  br label %9

9:                                                ; preds = %33, %3
  %10 = load i32, ptr %7, align 4
  %11 = load ptr, ptr %5, align 8
  %12 = getelementptr inbounds nuw %struct.RelMapFile, ptr %11, i32 0, i32 1
  %13 = load i32, ptr %12, align 4
  %14 = icmp slt i32 %10, %13
  br i1 %14, label %15, label %36

15:                                               ; preds = %9
  %16 = load ptr, ptr %4, align 8
  %17 = load ptr, ptr %5, align 8
  %18 = getelementptr inbounds nuw %struct.RelMapFile, ptr %17, i32 0, i32 2
  %19 = load i32, ptr %7, align 4
  %20 = sext i32 %19 to i64
  %21 = getelementptr inbounds [64 x %struct.RelMapping], ptr %18, i64 0, i64 %20
  %22 = getelementptr inbounds nuw %struct.RelMapping, ptr %21, i32 0, i32 0
  %23 = load i32, ptr %22, align 4
  %24 = load ptr, ptr %5, align 8
  %25 = getelementptr inbounds nuw %struct.RelMapFile, ptr %24, i32 0, i32 2
  %26 = load i32, ptr %7, align 4
  %27 = sext i32 %26 to i64
  %28 = getelementptr inbounds [64 x %struct.RelMapping], ptr %25, i64 0, i64 %27
  %29 = getelementptr inbounds nuw %struct.RelMapping, ptr %28, i32 0, i32 1
  %30 = load i32, ptr %29, align 4
  %31 = load i8, ptr %6, align 1, !range !4, !noundef !5
  %32 = trunc i8 %31 to i1
  call void @apply_map_update(ptr noundef %16, i32 noundef %23, i32 noundef %30, i1 noundef zeroext %32)
  br label %33

33:                                               ; preds = %15
  %34 = load i32, ptr %7, align 4
  %35 = add i32 %34, 1
  store i32 %35, ptr %7, align 4
  br label %9, !llvm.loop !19

36:                                               ; preds = %9
  call void @llvm.lifetime.end.p0(i64 4, ptr %7) #8
  ret void
}

; Function Attrs: nounwind uwtable
define internal void @load_relmap_file(i1 noundef zeroext %0, i1 noundef zeroext %1) #0 {
  %3 = alloca i8, align 1
  %4 = alloca i8, align 1
  %5 = zext i1 %0 to i8
  store i8 %5, ptr %3, align 1
  %6 = zext i1 %1 to i8
  store i8 %6, ptr %4, align 1
  %7 = load i8, ptr %3, align 1, !range !4, !noundef !5
  %8 = trunc i8 %7 to i1
  br i1 %8, label %9, label %12

9:                                                ; preds = %2
  %10 = load i8, ptr %4, align 1, !range !4, !noundef !5
  %11 = trunc i8 %10 to i1
  call void @read_relmap_file(ptr noundef @shared_map, ptr noundef @.str.5, i1 noundef zeroext %11, i32 noundef 22)
  br label %16

12:                                               ; preds = %2
  %13 = load ptr, ptr @DatabasePath, align 8
  %14 = load i8, ptr %4, align 1, !range !4, !noundef !5
  %15 = trunc i8 %14 to i1
  call void @read_relmap_file(ptr noundef @local_map, ptr noundef %13, i1 noundef zeroext %15, i32 noundef 22)
  br label %16

16:                                               ; preds = %12, %9
  ret void
}

; Function Attrs: nounwind uwtable
define internal void @perform_relmap_update(i1 noundef zeroext %0, ptr noundef %1) #0 {
  %3 = alloca i8, align 1
  %4 = alloca ptr, align 8
  %5 = alloca %struct.RelMapFile, align 4
  %6 = zext i1 %0 to i8
  store i8 %6, ptr %3, align 1
  store ptr %1, ptr %4, align 8
  call void @llvm.lifetime.start.p0(i64 524, ptr %5) #8
  %7 = load ptr, ptr @MainLWLockArray, align 8
  %8 = getelementptr inbounds %union.LWLockPadded, ptr %7, i64 25
  %9 = call zeroext i1 @LWLockAcquire(ptr noundef %8, i32 noundef 0)
  %10 = load i8, ptr %3, align 1, !range !4, !noundef !5
  %11 = trunc i8 %10 to i1
  call void @load_relmap_file(i1 noundef zeroext %11, i1 noundef zeroext true)
  %12 = load i8, ptr %3, align 1, !range !4, !noundef !5
  %13 = trunc i8 %12 to i1
  br i1 %13, label %14, label %15

14:                                               ; preds = %2
  call void @llvm.memcpy.p0.p0.i64(ptr align 4 %5, ptr align 4 @shared_map, i64 524, i1 false)
  br label %16

15:                                               ; preds = %2
  call void @llvm.memcpy.p0.p0.i64(ptr align 4 %5, ptr align 4 @local_map, i64 524, i1 false)
  br label %16

16:                                               ; preds = %15, %14
  %17 = load ptr, ptr %4, align 8
  %18 = load i8, ptr @allowSystemTableMods, align 1, !range !4, !noundef !5
  %19 = trunc i8 %18 to i1
  call void @merge_map_updates(ptr noundef %5, ptr noundef %17, i1 noundef zeroext %19)
  %20 = load i8, ptr %3, align 1, !range !4, !noundef !5
  %21 = trunc i8 %20 to i1
  br i1 %21, label %22, label %23

22:                                               ; preds = %16
  br label %25

23:                                               ; preds = %16
  %24 = load i32, ptr @MyDatabaseId, align 4
  br label %25

25:                                               ; preds = %23, %22
  %26 = phi i32 [ 0, %22 ], [ %24, %23 ]
  %27 = load i8, ptr %3, align 1, !range !4, !noundef !5
  %28 = trunc i8 %27 to i1
  br i1 %28, label %29, label %30

29:                                               ; preds = %25
  br label %32

30:                                               ; preds = %25
  %31 = load i32, ptr @MyDatabaseTableSpace, align 4
  br label %32

32:                                               ; preds = %30, %29
  %33 = phi i32 [ 1664, %29 ], [ %31, %30 ]
  %34 = load i8, ptr %3, align 1, !range !4, !noundef !5
  %35 = trunc i8 %34 to i1
  br i1 %35, label %36, label %37

36:                                               ; preds = %32
  br label %39

37:                                               ; preds = %32
  %38 = load ptr, ptr @DatabasePath, align 8
  br label %39

39:                                               ; preds = %37, %36
  %40 = phi ptr [ @.str.5, %36 ], [ %38, %37 ]
  call void @write_relmap_file(ptr noundef %5, i1 noundef zeroext true, i1 noundef zeroext true, i1 noundef zeroext true, i32 noundef %26, i32 noundef %33, ptr noundef %40)
  %41 = load i8, ptr %3, align 1, !range !4, !noundef !5
  %42 = trunc i8 %41 to i1
  br i1 %42, label %43, label %44

43:                                               ; preds = %39
  call void @llvm.memcpy.p0.p0.i64(ptr align 4 @shared_map, ptr align 4 %5, i64 524, i1 false)
  br label %45

44:                                               ; preds = %39
  call void @llvm.memcpy.p0.p0.i64(ptr align 4 @local_map, ptr align 4 %5, i64 524, i1 false)
  br label %45

45:                                               ; preds = %44, %43
  %46 = load ptr, ptr @MainLWLockArray, align 8
  %47 = getelementptr inbounds %union.LWLockPadded, ptr %46, i64 25
  call void @LWLockRelease(ptr noundef %47)
  call void @llvm.lifetime.end.p0(i64 524, ptr %5) #8
  ret void
}