; Function Attrs: nounwind uwtable
define internal fastcc void @perform_relmap_update(i1 noundef zeroext %0, ptr noundef readonly captures(none) %1) unnamed_addr #2 {
  %3 = alloca %struct.RelMapFile, align 4
  call void @llvm.lifetime.start.p0(i64 524, ptr nonnull %3) #12
  %4 = load ptr, ptr @MainLWLockArray, align 8
  %5 = getelementptr inbounds nuw i8, ptr %4, i64 3200
  %6 = tail call zeroext i1 @LWLockAcquire(ptr noundef nonnull %5, i32 noundef 0) #12
  br i1 %0, label %7, label %8

7:                                                ; preds = %2
  tail call fastcc void @read_relmap_file(ptr noundef nonnull @shared_map, ptr noundef nonnull @.str.5, i1 noundef zeroext true, i32 noundef 22)
  call void @llvm.memcpy.p0.p0.i64(ptr noundef nonnull align 4 dereferenceable(524) %3, ptr noundef nonnull align 4 dereferenceable(524) @shared_map, i64 524, i1 false)
  br label %10

8:                                                ; preds = %2
  %9 = load ptr, ptr @DatabasePath, align 8
  tail call fastcc void @read_relmap_file(ptr noundef nonnull @local_map, ptr noundef %9, i1 noundef zeroext true, i32 noundef 22)
  call void @llvm.memcpy.p0.p0.i64(ptr noundef nonnull align 4 dereferenceable(524) %3, ptr noundef nonnull align 4 dereferenceable(524) @local_map, i64 524, i1 false)
  br label %10

10:                                               ; preds = %8, %7
  %11 = getelementptr inbounds nuw i8, ptr %1, i64 4
  %12 = load i32, ptr %11, align 4
  %13 = icmp sgt i32 %12, 0
  br i1 %13, label %.lr.ph.i, label %merge_map_updates.exit

.lr.ph.i:                                         ; preds = %10
  %14 = load i8, ptr @allowSystemTableMods, align 1, !range !18, !noundef !19
  %15 = trunc nuw i8 %14 to i1
  %16 = getelementptr inbounds nuw i8, ptr %1, i64 8
  %17 = getelementptr inbounds nuw i8, ptr %3, i64 4
  %18 = getelementptr inbounds nuw i8, ptr %3, i64 8
  %.pre.i = load i32, ptr %17, align 4
  br i1 %15, label %.lr.ph.split.us.i.preheader, label %.lr.ph.split.i

.lr.ph.split.us.i.preheader:                      ; preds = %.lr.ph.i
  %19 = zext nneg i32 %12 to i64
  br label %.lr.ph.split.us.i

.lr.ph.split.us.i:                                ; preds = %.lr.ph.split.us.i.preheader, %apply_map_update.exit.us.i
  %20 = phi i32 [ %39, %apply_map_update.exit.us.i ], [ %.pre.i, %.lr.ph.split.us.i.preheader ]
  %indvars.iv41.i = phi i64 [ %indvars.iv.next42.i, %apply_map_update.exit.us.i ], [ 0, %.lr.ph.split.us.i.preheader ]
  %21 = getelementptr inbounds nuw [64 x %struct.RelMapping], ptr %16, i64 0, i64 %indvars.iv41.i
  %22 = load i32, ptr %21, align 4
  %23 = getelementptr inbounds nuw i8, ptr %21, i64 4
  %24 = load i32, ptr %23, align 4
  %25 = icmp sgt i32 %20, 0
  br i1 %25, label %.lr.ph.i.us.i, label %._crit_edge.i.us.thread.i

.lr.ph.i.us.i:                                    ; preds = %.lr.ph.split.us.i
  %wide.trip.count.i.us.i = zext nneg i32 %20 to i64
  br label %26

26:                                               ; preds = %30, %.lr.ph.i.us.i
  %indvars.iv.i.us.i = phi i64 [ 0, %.lr.ph.i.us.i ], [ %indvars.iv.next.i.us.i, %30 ]
  %27 = getelementptr inbounds nuw [64 x %struct.RelMapping], ptr %18, i64 0, i64 %indvars.iv.i.us.i
  %28 = load i32, ptr %27, align 4
  %29 = icmp eq i32 %22, %28
  br i1 %29, label %37, label %30

30:                                               ; preds = %26
  %indvars.iv.next.i.us.i = add nuw nsw i64 %indvars.iv.i.us.i, 1
  %exitcond.not.i.us.i = icmp eq i64 %indvars.iv.next.i.us.i, %wide.trip.count.i.us.i
  br i1 %exitcond.not.i.us.i, label %._crit_edge.i.us.i, label %26, !llvm.loop !15

._crit_edge.i.us.i:                               ; preds = %30
  %31 = icmp sgt i32 %20, 63
  br i1 %31, label %.split.us.i, label %._crit_edge.i.us.thread.i

._crit_edge.i.us.thread.i:                        ; preds = %._crit_edge.i.us.i, %.lr.ph.split.us.i
  %32 = sext i32 %20 to i64
  %33 = getelementptr inbounds [64 x %struct.RelMapping], ptr %18, i64 0, i64 %32
  store i32 %22, ptr %33, align 4
  %.idx.i.us.i = shl nsw i64 %32, 3
  %.offs.i.us.i = or disjoint i64 %.idx.i.us.i, 4
  %34 = getelementptr inbounds i8, ptr %18, i64 %.offs.i.us.i
  store i32 %24, ptr %34, align 4
  %35 = load i32, ptr %17, align 4
  %36 = add i32 %35, 1
  store i32 %36, ptr %17, align 4
  br label %apply_map_update.exit.us.i

37:                                               ; preds = %26
  %.idx26.i.us.i = shl nuw nsw i64 %indvars.iv.i.us.i, 3
  %.offs27.i.us.i = or disjoint i64 %.idx26.i.us.i, 4
  %38 = getelementptr inbounds nuw i8, ptr %18, i64 %.offs27.i.us.i
  store i32 %24, ptr %38, align 4
  br label %apply_map_update.exit.us.i

apply_map_update.exit.us.i:                       ; preds = %37, %._crit_edge.i.us.thread.i
  %39 = phi i32 [ %20, %37 ], [ %36, %._crit_edge.i.us.thread.i ]
  %indvars.iv.next42.i = add nuw nsw i64 %indvars.iv41.i, 1
  %exitcond14.not = icmp eq i64 %indvars.iv.next42.i, %19
  br i1 %exitcond14.not, label %merge_map_updates.exit, label %.lr.ph.split.us.i, !llvm.loop !17

.lr.ph.split.i:                                   ; preds = %.lr.ph.i
  %40 = icmp sgt i32 %.pre.i, 0
  br i1 %40, label %.lr.ph.split.split.us.i, label %._crit_edge.i.loopexit27.i

.lr.ph.split.split.us.i:                          ; preds = %.lr.ph.split.i
  %wide.trip.count.i.us17.i = zext nneg i32 %.pre.i to i64
  %41 = zext nneg i32 %12 to i64
  br label %.lr.ph.i.us16.i

.lr.ph.i.us16.i:                                  ; preds = %apply_map_update.exit.us21.i, %.lr.ph.split.split.us.i
  %indvars.iv38.i = phi i64 [ %indvars.iv.next39.i, %apply_map_update.exit.us21.i ], [ 0, %.lr.ph.split.split.us.i ]
  %42 = getelementptr inbounds nuw [64 x %struct.RelMapping], ptr %16, i64 0, i64 %indvars.iv38.i
  %43 = load i32, ptr %42, align 4
  %44 = getelementptr inbounds nuw i8, ptr %42, i64 4
  %45 = load i32, ptr %44, align 4
  br label %46

46:                                               ; preds = %50, %.lr.ph.i.us16.i
  %indvars.iv.i.us18.i = phi i64 [ 0, %.lr.ph.i.us16.i ], [ %indvars.iv.next.i.us19.i, %50 ]
  %47 = getelementptr inbounds nuw [64 x %struct.RelMapping], ptr %18, i64 0, i64 %indvars.iv.i.us18.i
  %48 = load i32, ptr %47, align 4
  %49 = icmp eq i32 %43, %48
  br i1 %49, label %apply_map_update.exit.us21.i, label %50

50:                                               ; preds = %46
  %indvars.iv.next.i.us19.i = add nuw nsw i64 %indvars.iv.i.us18.i, 1
  %exitcond.not.i.us20.i = icmp eq i64 %indvars.iv.next.i.us19.i, %wide.trip.count.i.us17.i
  br i1 %exitcond.not.i.us20.i, label %._crit_edge.i.i, label %46, !llvm.loop !15

apply_map_update.exit.us21.i:                     ; preds = %46
  %.idx26.i.us23.i = shl nuw nsw i64 %indvars.iv.i.us18.i, 3
  %.offs27.i.us24.i = or disjoint i64 %.idx26.i.us23.i, 4
  %51 = getelementptr inbounds nuw i8, ptr %18, i64 %.offs27.i.us24.i
  store i32 %45, ptr %51, align 4
  %indvars.iv.next39.i = add nuw nsw i64 %indvars.iv38.i, 1
  %exitcond.not = icmp eq i64 %indvars.iv.next39.i, %41
  br i1 %exitcond.not, label %merge_map_updates.exit, label %.lr.ph.i.us16.i, !llvm.loop !17

._crit_edge.i.loopexit27.i:                       ; preds = %.lr.ph.split.i
  %.pre44.i = load i32, ptr %16, align 4
  br label %._crit_edge.i.i

._crit_edge.i.i:                                  ; preds = %50, %._crit_edge.i.loopexit27.i
  %.lcssa.i = phi i32 [ %.pre44.i, %._crit_edge.i.loopexit27.i ], [ %43, %50 ]
  %52 = tail call zeroext i1 @errstart_cold(i32 noundef 21, ptr noundef null) #13
  tail call void @llvm.assume(i1 %52)
  %53 = tail call i32 (ptr, ...) @errmsg_internal(ptr noundef nonnull @.str.9, i32 noundef %.lcssa.i) #12
  tail call void @errfinish(ptr noundef nonnull @.str.1, i32 noundef 401, ptr noundef nonnull @__func__.apply_map_update) #12
  unreachable

.split.us.i:                                      ; preds = %._crit_edge.i.us.i
  %54 = tail call zeroext i1 @errstart_cold(i32 noundef 21, ptr noundef null) #13
  tail call void @llvm.assume(i1 %54)
  %55 = tail call i32 (ptr, ...) @errmsg_internal(ptr noundef nonnull @.str.10) #12
  tail call void @errfinish(ptr noundef nonnull @.str.1, i32 noundef 403, ptr noundef nonnull @__func__.apply_map_update) #12
  unreachable

merge_map_updates.exit:                           ; preds = %apply_map_update.exit.us21.i, %apply_map_update.exit.us.i, %10
  %56 = load i32, ptr @MyDatabaseId, align 4
  %57 = select i1 %0, i32 0, i32 %56
  %58 = load i32, ptr @MyDatabaseTableSpace, align 4
  %59 = select i1 %0, i32 1664, i32 %58
  %60 = load ptr, ptr @DatabasePath, align 8
  %61 = select i1 %0, ptr @.str.5, ptr %60
  call fastcc void @write_relmap_file(ptr noundef nonnull %3, i1 noundef zeroext true, i1 noundef zeroext true, i1 noundef zeroext true, i32 noundef %57, i32 noundef %59, ptr noundef %61)
  br i1 %0, label %62, label %63

62:                                               ; preds = %merge_map_updates.exit
  call void @llvm.memcpy.p0.p0.i64(ptr noundef nonnull align 4 dereferenceable(524) @shared_map, ptr noundef nonnull align 4 dereferenceable(524) %3, i64 524, i1 false)
  br label %64

63:                                               ; preds = %merge_map_updates.exit
  call void @llvm.memcpy.p0.p0.i64(ptr noundef nonnull align 4 dereferenceable(524) @local_map, ptr noundef nonnull align 4 dereferenceable(524) %3, i64 524, i1 false)
  br label %64

64:                                               ; preds = %63, %62
  %65 = load ptr, ptr @MainLWLockArray, align 8
  %66 = getelementptr inbounds nuw i8, ptr %65, i64 3200
  call void @LWLockRelease(ptr noundef nonnull %66) #12
  call void @llvm.lifetime.end.p0(i64 524, ptr nonnull %3) #12
  ret void
}